; Function Attrs: nounwind uwtable
define internal ptr @getargs_keyword_only(ptr readnone captures(none) %0, ptr noundef %1, ptr noundef %2) #0 {
  %4 = alloca i32, align 4
  %5 = alloca i32, align 4
  %6 = alloca i32, align 4
  call void @llvm.lifetime.start.p0(i64 4, ptr nonnull %4) #7
  store i32 -1, ptr %4, align 4, !tbaa !6
  call void @llvm.lifetime.start.p0(i64 4, ptr nonnull %5) #7
  store i32 -1, ptr %5, align 4, !tbaa !6
  call void @llvm.lifetime.start.p0(i64 4, ptr nonnull %6) #7
  store i32 -1, ptr %6, align 4, !tbaa !6
  %7 = call i32 (ptr, ptr, ptr, ptr, ...) @PyArg_ParseTupleAndKeywords(ptr noundef %1, ptr noundef %2, ptr noundef nonnull @.str.77, ptr noundef nonnull @getargs_keyword_only.keywords, ptr noundef nonnull %4, ptr noundef nonnull %5, ptr noundef nonnull %6) #7
  %.not = icmp eq i32 %7, 0
  br i1 %.not, label %13, label %8

8:                                                ; preds = %3
  %9 = load i32, ptr %4, align 4, !tbaa !6
  %10 = load i32, ptr %5, align 4, !tbaa !6
  %11 = load i32, ptr %6, align 4, !tbaa !6
  %12 = call ptr (ptr, ...) @Py_BuildValue(ptr noundef nonnull @.str.78, i32 noundef %9, i32 noundef %10, i32 noundef %11) #7
  br label %13

13:                                               ; preds = %3, %8
  %.0 = phi ptr [ %12, %8 ], [ null, %3 ]
  call void @llvm.lifetime.end.p0(i64 4, ptr nonnull %6) #7
  call void @llvm.lifetime.end.p0(i64 4, ptr nonnull %5) #7
  call void @llvm.lifetime.end.p0(i64 4, ptr nonnull %4) #7
  ret ptr %.0
}